; Function Attrs: noinline norecurse nounwind uwtable
define internal void @_ZN8LightGBM4Tree7AddBiasEd.omp_outlined.190(ptr noalias noundef readonly captures(none) %0, ptr noalias readnone captures(none) %1, ptr noundef readonly captures(none) %2, ptr noundef nonnull readonly align 8 captures(none) dereferenceable(8) %3) #15 {
  %5 = alloca i32, align 4
  %6 = alloca i32, align 4
  %7 = alloca i32, align 4
  %8 = alloca i32, align 4
  %9 = getelementptr inbounds nuw i8, ptr %2, i64 12
  %10 = load i32, ptr %9, align 4, !tbaa !130
  %11 = add nsw i32 %10, -2
  %12 = icmp sgt i32 %10, 1
  br i1 %12, label %13, label %35

13:                                               ; preds = %4
  call void @llvm.lifetime.start.p0(i64 4, ptr nonnull %5) #16
  store i32 0, ptr %5, align 4, !tbaa !36
  call void @llvm.lifetime.start.p0(i64 4, ptr nonnull %6) #16
  store i32 %11, ptr %6, align 4, !tbaa !36
  call void @llvm.lifetime.start.p0(i64 4, ptr nonnull %7) #16
  store i32 1, ptr %7, align 4, !tbaa !36
  call void @llvm.lifetime.start.p0(i64 4, ptr nonnull %8) #16
  store i32 0, ptr %8, align 4, !tbaa !36
  %14 = load i32, ptr %0, align 4, !tbaa !36
  call void @__kmpc_for_static_init_4(ptr nonnull @1, i32 %14, i32 33, ptr nonnull %8, ptr nonnull %5, ptr nonnull %6, ptr nonnull %7, i32 1, i32 1024)
  %.promoted = load i32, ptr %6, align 4, !tbaa !36
  %.promoted17 = load i32, ptr %5, align 4, !tbaa !36
  %15 = call i32 @llvm.smin.i32(i32 %.promoted, i32 %11)
  %.not18 = icmp sgt i32 %.promoted17, %15
  br i1 %.not18, label %34, label %.preheader.lr.ph

.preheader.lr.ph:                                 ; preds = %13
  %16 = getelementptr inbounds nuw i8, ptr %2, i64 576
  %17 = load ptr, ptr %16, align 8, !tbaa !18
  %18 = load i32, ptr %7, align 4, !tbaa !36
  %19 = sext i32 %.promoted17 to i64
  %20 = sext i32 %18 to i64
  br label %.preheader

.preheader:                                       ; preds = %.preheader.lr.ph, %31
  %indvars.iv = phi i64 [ %19, %.preheader.lr.ph ], [ %indvars.iv.next, %31 ]
  %21 = phi i32 [ %15, %.preheader.lr.ph ], [ %33, %31 ]
  %22 = sext i32 %21 to i64
  br label %23

23:                                               ; preds = %.preheader, %23
  %indvars.iv22 = phi i64 [ %indvars.iv, %.preheader ], [ %indvars.iv.next23, %23 ]
  %24 = getelementptr inbounds nuw double, ptr %17, i64 %indvars.iv22
  %25 = load double, ptr %24, align 8, !tbaa !66
  %26 = load double, ptr %3, align 8, !tbaa !66
  %27 = fadd double %25, %26
  %28 = call double @llvm.fabs.f64(double %27)
  %29 = fcmp ole double %28, 0x38AA95A5C0000000
  %30 = select i1 %29, double 0.000000e+00, double %27
  store double %30, ptr %24, align 8, !tbaa !66
  %indvars.iv.next23 = add nsw i64 %indvars.iv22, 1
  %.not15.not = icmp slt i64 %indvars.iv22, %22
  br i1 %.not15.not, label %23, label %31

31:                                               ; preds = %23
  %indvars.iv.next = add i64 %indvars.iv, %20
  %indvars = trunc i64 %indvars.iv.next to i32
  %32 = add nsw i32 %18, %21
  %33 = call i32 @llvm.smin.i32(i32 %32, i32 %11)
  %.not = icmp slt i32 %33, %indvars
  br i1 %.not, label %._crit_edge, label %.preheader

._crit_edge:                                      ; preds = %31
  store i32 %indvars, ptr %5, align 4, !tbaa !36
  br label %34

34:                                               ; preds = %._crit_edge, %13
  %.lcssa = phi i32 [ %33, %._crit_edge ], [ %15, %13 ]
  store i32 %.lcssa, ptr %6, align 4, !tbaa !36
  call void @__kmpc_for_static_fini(ptr nonnull @1, i32 %14)
  call void @llvm.lifetime.end.p0(i64 4, ptr nonnull %8) #16
  call void @llvm.lifetime.end.p0(i64 4, ptr nonnull %7) #16
  call void @llvm.lifetime.end.p0(i64 4, ptr nonnull %6) #16
  call void @llvm.lifetime.end.p0(i64 4, ptr nonnull %5) #16
  br label %35

35:                                               ; preds = %34, %4
  ret void
}